target datalayout = "e-m:e-p270:32:32-p271:32:32-p272:64:64-i64:64-i128:128-f80:128-n8:16:32:64-S128"
target triple = "x86_64-pc-linux-gnu"

%struct.control_t = type { %struct.block_header_t, i32, [9 x i32], [9 x [32 x ptr]] }
%struct.block_header_t = type { ptr, i64, ptr, ptr }

; Function Attrs: nounwind uwtable
define internal void @control_constructor(ptr noundef %0) #0 {
  %2 = alloca ptr, align 8
  %3 = alloca i32, align 4
  %4 = alloca i32, align 4
  store ptr %0, ptr %2, align 8, !tbaa !3
  call void @llvm.lifetime.start.p0(i64 4, ptr %3) #5
  call void @llvm.lifetime.start.p0(i64 4, ptr %4) #5
  %5 = load ptr, ptr %2, align 8, !tbaa !3
  %6 = getelementptr inbounds nuw %struct.control_t, ptr %5, i32 0, i32 0
  %7 = load ptr, ptr %2, align 8, !tbaa !3
  %8 = getelementptr inbounds nuw %struct.control_t, ptr %7, i32 0, i32 0
  %9 = getelementptr inbounds nuw %struct.block_header_t, ptr %8, i32 0, i32 2
  store ptr %6, ptr %9, align 8, !tbaa !26
  %10 = load ptr, ptr %2, align 8, !tbaa !3
  %11 = getelementptr inbounds nuw %struct.control_t, ptr %10, i32 0, i32 0
  %12 = load ptr, ptr %2, align 8, !tbaa !3
  %13 = getelementptr inbounds nuw %struct.control_t, ptr %12, i32 0, i32 0
  %14 = getelementptr inbounds nuw %struct.block_header_t, ptr %13, i32 0, i32 3
  store ptr %11, ptr %14, align 8, !tbaa !27
  %15 = load ptr, ptr %2, align 8, !tbaa !3
  %16 = getelementptr inbounds nuw %struct.control_t, ptr %15, i32 0, i32 1
  store i32 0, ptr %16, align 8, !tbaa !9
  store i32 0, ptr %3, align 4, !tbaa !7
  br label %17

17:                                               ; preds = %44, %1
  %18 = load i32, ptr %3, align 4, !tbaa !7
  %19 = icmp slt i32 %18, 9
  br i1 %19, label %20, label %47

20:                                               ; preds = %17
  %21 = load ptr, ptr %2, align 8, !tbaa !3
  %22 = getelementptr inbounds nuw %struct.control_t, ptr %21, i32 0, i32 2
  %23 = load i32, ptr %3, align 4, !tbaa !7
  %24 = sext i32 %23 to i64
  %25 = getelementptr inbounds [9 x i32], ptr %22, i64 0, i64 %24
  store i32 0, ptr %25, align 4, !tbaa !7
  store i32 0, ptr %4, align 4, !tbaa !7
  br label %26

26:                                               ; preds = %40, %20
  %27 = load i32, ptr %4, align 4, !tbaa !7
  %28 = icmp slt i32 %27, 32
  br i1 %28, label %29, label %43

29:                                               ; preds = %26
  %30 = load ptr, ptr %2, align 8, !tbaa !3
  %31 = getelementptr inbounds nuw %struct.control_t, ptr %30, i32 0, i32 0
  %32 = load ptr, ptr %2, align 8, !tbaa !3
  %33 = getelementptr inbounds nuw %struct.control_t, ptr %32, i32 0, i32 3
  %34 = load i32, ptr %3, align 4, !tbaa !7
  %35 = sext i32 %34 to i64
  %36 = getelementptr inbounds [9 x [32 x ptr]], ptr %33, i64 0, i64 %35
  %37 = load i32, ptr %4, align 4, !tbaa !7
  %38 = sext i32 %37 to i64
  %39 = getelementptr inbounds [32 x ptr], ptr %36, i64 0, i64 %38
  store ptr %31, ptr %39, align 8, !tbaa !3
  br label %40

40:                                               ; preds = %29
  %41 = load i32, ptr %4, align 4, !tbaa !7
  %42 = add nsw i32 %41, 1
  store i32 %42, ptr %4, align 4, !tbaa !7
  br label %26, !llvm.loop !28

43:                                               ; preds = %26
  br label %44

44:                                               ; preds = %43
  %45 = load i32, ptr %3, align 4, !tbaa !7
  %46 = add nsw i32 %45, 1
  store i32 %46, ptr %3, align 4, !tbaa !7
  br label %17, !llvm.loop !29

47:                                               ; preds = %17
  call void @llvm.lifetime.end.p0(i64 4, ptr %4) #5
  call void @llvm.lifetime.end.p0(i64 4, ptr %3) #5
  ret void
}

; Function Attrs: nounwind uwtable
define ptr @lv_tlsf_create(ptr noundef %0) #0 {
  %2 = alloca ptr, align 8
  %3 = alloca ptr, align 8
  store ptr %0, ptr %3, align 8, !tbaa !3
  %4 = load ptr, ptr %3, align 8, !tbaa !3
  %5 = ptrtoint ptr %4 to i64
  %6 = srem i64 %5, 8
  %7 = icmp ne i64 %6, 0
  br i1 %7, label %8, label %11

8:                                                ; preds = %1
  br label %9

9:                                                ; preds = %8
  br label %10

10:                                               ; preds = %9
  store ptr null, ptr %2, align 8
  br label %14

11:                                               ; preds = %1
  %12 = load ptr, ptr %3, align 8, !tbaa !3
  call void @control_constructor(ptr noundef %12)
  %13 = load ptr, ptr %3, align 8, !tbaa !3
  store ptr %13, ptr %2, align 8
  br label %14

14:                                               ; preds = %11, %10
  %15 = load ptr, ptr %2, align 8
  ret ptr %15
}