; Function Attrs: nofree norecurse nosync nounwind memory(argmem: write) uwtable
define noundef ptr @lv_tlsf_create(ptr noundef %0) local_unnamed_addr #7 {
  %2 = ptrtoint ptr %0 to i64
  %3 = and i64 %2, 7
  %.not = icmp eq i64 %3, 0
  br i1 %.not, label %4, label %control_constructor.exit

4:                                                ; preds = %1
  %5 = getelementptr inbounds nuw i8, ptr %0, i64 16
  store ptr %0, ptr %5, align 8, !tbaa !22
  %6 = getelementptr inbounds nuw i8, ptr %0, i64 24
  store ptr %0, ptr %6, align 8, !tbaa !23
  %7 = getelementptr inbounds nuw i8, ptr %0, i64 32
  %8 = getelementptr inbounds nuw i8, ptr %0, i64 72
  tail call void @llvm.memset.p0.i64(ptr noundef nonnull align 8 dereferenceable(40) %7, i8 0, i64 40, i1 false)
  br label %9

9:                                                ; preds = %12, %4
  %indvars.iv18.i = phi i64 [ 0, %4 ], [ %indvars.iv.next19.i, %12 ]
  br label %10

10:                                               ; preds = %10, %9
  %indvars.iv.i = phi i64 [ 0, %9 ], [ %indvars.iv.next.i, %10 ]
  %11 = getelementptr inbounds [9 x [32 x ptr]], ptr %8, i64 0, i64 %indvars.iv18.i, i64 %indvars.iv.i
  store ptr %0, ptr %11, align 8, !tbaa !12
  %indvars.iv.next.i = add nuw nsw i64 %indvars.iv.i, 1
  %exitcond.not.i = icmp eq i64 %indvars.iv.next.i, 32
  br i1 %exitcond.not.i, label %12, label %10, !llvm.loop !24

12:                                               ; preds = %10
  %indvars.iv.next19.i = add nuw nsw i64 %indvars.iv18.i, 1
  %exitcond21.not.i = icmp eq i64 %indvars.iv.next19.i, 9
  br i1 %exitcond21.not.i, label %control_constructor.exit, label %9, !llvm.loop !25

control_constructor.exit:                         ; preds = %12, %1
  %.0 = phi ptr [ null, %1 ], [ %0, %12 ]
  ret ptr %.0
}